target datalayout = "e-m:e-p270:32:32-p271:32:32-p272:64:64-i64:64-i128:128-f80:128-n8:16:32:64-S128"
target triple = "x86_64-pc-linux-gnu"

@.str.78 = private unnamed_addr constant [4 x i8] c"iii\00", align 1
@getargs_positional_only_and_keywords.keywords = internal global [4 x ptr] [ptr @.str.88, ptr @.str.88, ptr @.str.89, ptr null], align 16
@.str.90 = private unnamed_addr constant [5 x i8] c"i|ii\00", align 1

; Function Attrs: nounwind uwtable
define internal ptr @getargs_positional_only_and_keywords(ptr noundef %0, ptr noundef %1, ptr noundef %2) #0 {
  %4 = alloca ptr, align 8
  %5 = alloca ptr, align 8
  %6 = alloca ptr, align 8
  %7 = alloca ptr, align 8
  %8 = alloca i32, align 4
  %9 = alloca i32, align 4
  %10 = alloca i32, align 4
  %11 = alloca i32, align 4
  store ptr %0, ptr %5, align 8, !tbaa !3
  store ptr %1, ptr %6, align 8, !tbaa !3
  store ptr %2, ptr %7, align 8, !tbaa !3
  call void @llvm.lifetime.start.p0(i64 4, ptr %8) #9
  store i32 -1, ptr %8, align 4, !tbaa !9
  call void @llvm.lifetime.start.p0(i64 4, ptr %9) #9
  store i32 -1, ptr %9, align 4, !tbaa !9
  call void @llvm.lifetime.start.p0(i64 4, ptr %10) #9
  store i32 -1, ptr %10, align 4, !tbaa !9
  %12 = load ptr, ptr %6, align 8, !tbaa !3
  %13 = load ptr, ptr %7, align 8, !tbaa !3
  %14 = call i32 (ptr, ptr, ptr, ptr, ...) @PyArg_ParseTupleAndKeywords(ptr noundef %12, ptr noundef %13, ptr noundef @.str.90, ptr noundef @getargs_positional_only_and_keywords.keywords, ptr noundef %8, ptr noundef %9, ptr noundef %10)
  %15 = icmp ne i32 %14, 0
  br i1 %15, label %17, label %16

16:                                               ; preds = %3
  store ptr null, ptr %4, align 8
  store i32 1, ptr %11, align 4
  br label %22

17:                                               ; preds = %3
  %18 = load i32, ptr %8, align 4, !tbaa !9
  %19 = load i32, ptr %9, align 4, !tbaa !9
  %20 = load i32, ptr %10, align 4, !tbaa !9
  %21 = call ptr (ptr, ...) @Py_BuildValue(ptr noundef @.str.78, i32 noundef %18, i32 noundef %19, i32 noundef %20)
  store ptr %21, ptr %4, align 8
  store i32 1, ptr %11, align 4
  br label %22

22:                                               ; preds = %17, %16
  call void @llvm.lifetime.end.p0(i64 4, ptr %10) #9
  call void @llvm.lifetime.end.p0(i64 4, ptr %9) #9
  call void @llvm.lifetime.end.p0(i64 4, ptr %8) #9
  %23 = load ptr, ptr %4, align 8
  ret ptr %23
}